; Function Attrs: mustprogress nofree norecurse nosync nounwind sspstrong willreturn memory(argmem: read) uwtable
define dso_local zeroext i1 @migration_has_failed(ptr noundef readonly captures(none) %s) local_unnamed_addr #11 {
entry:
  %state = getelementptr inbounds nuw i8, ptr %s, i64 776
  %0 = load i32, ptr %state, align 8
  %cmp = icmp eq i32 %0, 3
  %cmp2 = icmp eq i32 %0, 9
  %spec.select = or i1 %cmp, %cmp2
  ret i1 %spec.select
}